; Function Attrs: mustprogress uwtable
define hidden void @_ZN4cvc58internal17InstantiationList10initializeENS0_12NodeTemplateILb1EEE(ptr noundef nonnull align 8 captures(none) dereferenceable(32) %0, ptr noundef readonly captures(none) %1) local_unnamed_addr #3 align 2 {
  %3 = load ptr, ptr %0, align 8, !tbaa !21
  %4 = load ptr, ptr %1, align 8, !tbaa !21
  %.not.i = icmp eq ptr %3, %4
  br i1 %.not.i, label %_ZN4cvc58internal12NodeTemplateILb1EEaSERKS2_.exit, label %5, !prof !10

5:                                                ; preds = %2
  %6 = load i64, ptr %3, align 8
  %7 = and i64 %6, 1152920405095219200
  %.not.i.i = icmp eq i64 %7, 1152920405095219200
  br i1 %.not.i.i, label %_ZN4cvc58internal4expr9NodeValue3decEv.exit.i, label %8, !prof !10

8:                                                ; preds = %5
  %9 = add i64 %6, 1152920405095219200
  %10 = and i64 %9, 1152920405095219200
  %11 = and i64 %6, -1152920405095219201
  %12 = or disjoint i64 %10, %11
  store i64 %12, ptr %3, align 8
  %13 = icmp eq i64 %10, 0
  br i1 %13, label %14, label %_ZN4cvc58internal4expr9NodeValue3decEv.exit.i, !prof !10

14:                                               ; preds = %8
  tail call void @_ZN4cvc58internal4expr9NodeValue15markForDeletionEv(ptr noundef nonnull align 8 dereferenceable(24) %3)
  br label %_ZN4cvc58internal4expr9NodeValue3decEv.exit.i

_ZN4cvc58internal4expr9NodeValue3decEv.exit.i:    ; preds = %14, %8, %5
  %15 = load ptr, ptr %1, align 8, !tbaa !21
  store ptr %15, ptr %0, align 8, !tbaa !21
  %16 = load i64, ptr %15, align 8
  %17 = lshr i64 %16, 40
  %18 = trunc nuw nsw i64 %17 to i32
  %19 = and i32 %18, 1048575
  %20 = icmp samesign ult i32 %19, 1048574
  br i1 %20, label %21, label %26, !prof !22

21:                                               ; preds = %_ZN4cvc58internal4expr9NodeValue3decEv.exit.i
  %22 = add i64 %16, 1099511627776
  %23 = and i64 %22, 1152920405095219200
  %24 = and i64 %16, -1152920405095219201
  %25 = or disjoint i64 %23, %24
  store i64 %25, ptr %15, align 8
  br label %_ZN4cvc58internal12NodeTemplateILb1EEaSERKS2_.exit

26:                                               ; preds = %_ZN4cvc58internal4expr9NodeValue3decEv.exit.i
  %27 = icmp eq i32 %19, 1048574
  br i1 %27, label %28, label %_ZN4cvc58internal12NodeTemplateILb1EEaSERKS2_.exit, !prof !10

28:                                               ; preds = %26
  %29 = or i64 %16, 1152920405095219200
  store i64 %29, ptr %15, align 8
  tail call void @_ZN4cvc58internal4expr9NodeValue20markRefCountMaxedOutEv(ptr noundef nonnull align 8 dereferenceable(24) %15)
  br label %_ZN4cvc58internal12NodeTemplateILb1EEaSERKS2_.exit

_ZN4cvc58internal12NodeTemplateILb1EEaSERKS2_.exit: ; preds = %2, %21, %26, %28
  ret void
}